; Function Attrs: mustprogress nofree norecurse nosync nounwind willreturn memory(read, inaccessiblemem: none) uwtable
define dso_local noundef ptr @_ZNK4llvm18BlockFrequencyInfo11getFunctionEv(ptr nocapture noundef nonnull readonly align 8 dereferenceable(8) %0) local_unnamed_addr #7 align 2 {
  %2 = load ptr, ptr %0, align 8
  %.not = icmp eq ptr %2, null
  br i1 %.not, label %6, label %3

3:                                                ; preds = %1
  %4 = getelementptr inbounds nuw i8, ptr %2, i64 128
  %5 = load ptr, ptr %4, align 8
  br label %6

6:                                                ; preds = %1, %3
  %7 = phi ptr [ %5, %3 ], [ null, %1 ]
  ret ptr %7
}